target datalayout = "e-m:e-p270:32:32-p271:32:32-p272:64:64-i64:64-i128:128-f80:128-n8:16:32:64-S128"
target triple = "x86_64-pc-linux-gnu"

@bio_err = external global ptr, align 8
@.str.436 = private unnamed_addr constant [18 x i8] c"\0AInvalid cipher!\0A\00", align 1
@.str.437 = private unnamed_addr constant [67 x i8] c"\0ARequested encryption length not a multiple of block size for %s!\0A\00", align 1

; Function Attrs: nounwind uwtable
define internal i32 @check_block_size(ptr noundef %0, i32 noundef %1) #0 {
  %3 = alloca i32, align 4
  %4 = alloca ptr, align 8
  %5 = alloca i32, align 4
  %6 = alloca ptr, align 8
  %7 = alloca i32, align 4
  %8 = alloca i32, align 4
  store ptr %0, ptr %4, align 8, !tbaa !219
  store i32 %1, ptr %5, align 4, !tbaa !4
  call void @llvm.lifetime.start.p0(i64 8, ptr %6) #11
  %9 = load ptr, ptr %4, align 8, !tbaa !219
  %10 = call ptr @EVP_CIPHER_CTX_get0_cipher(ptr noundef %9)
  store ptr %10, ptr %6, align 8, !tbaa !40
  call void @llvm.lifetime.start.p0(i64 4, ptr %7) #11
  %11 = load ptr, ptr %4, align 8, !tbaa !219
  %12 = call i32 @EVP_CIPHER_CTX_get_block_size(ptr noundef %11)
  store i32 %12, ptr %7, align 4, !tbaa !4
  %13 = load ptr, ptr %6, align 8, !tbaa !40
  %14 = icmp eq ptr %13, null
  br i1 %14, label %18, label %15

15:                                               ; preds = %2
  %16 = load i32, ptr %7, align 4, !tbaa !4
  %17 = icmp sle i32 %16, 0
  br i1 %17, label %18, label %21

18:                                               ; preds = %15, %2
  %19 = load ptr, ptr @bio_err, align 8, !tbaa !53
  %20 = call i32 (ptr, ptr, ...) @BIO_printf(ptr noundef %19, ptr noundef @.str.436)
  store i32 0, ptr %3, align 4
  store i32 1, ptr %8, align 4
  br label %32

21:                                               ; preds = %15
  %22 = load i32, ptr %5, align 4, !tbaa !4
  %23 = load i32, ptr %7, align 4, !tbaa !4
  %24 = srem i32 %22, %23
  %25 = icmp ne i32 %24, 0
  br i1 %25, label %26, label %31

26:                                               ; preds = %21
  %27 = load ptr, ptr @bio_err, align 8, !tbaa !53
  %28 = load ptr, ptr %6, align 8, !tbaa !40
  %29 = call ptr @EVP_CIPHER_get0_name(ptr noundef %28)
  %30 = call i32 (ptr, ptr, ...) @BIO_printf(ptr noundef %27, ptr noundef @.str.437, ptr noundef %29)
  store i32 0, ptr %3, align 4
  store i32 1, ptr %8, align 4
  br label %32

31:                                               ; preds = %21
  store i32 1, ptr %3, align 4
  store i32 1, ptr %8, align 4
  br label %32

32:                                               ; preds = %31, %26, %18
  call void @llvm.lifetime.end.p0(i64 4, ptr %7) #11
  call void @llvm.lifetime.end.p0(i64 8, ptr %6) #11
  %33 = load i32, ptr %3, align 4
  ret i32 %33
}