; Function Attrs: nounwind uwtable
define internal fastcc range(i32 0, 2) i32 @check_block_size(ptr noundef %0, i32 noundef %1) unnamed_addr #0 {
  %3 = tail call ptr @EVP_CIPHER_CTX_get0_cipher(ptr noundef %0) #14
  %4 = tail call i32 @EVP_CIPHER_CTX_get_block_size(ptr noundef %0) #14
  %5 = icmp eq ptr %3, null
  %6 = icmp slt i32 %4, 1
  %or.cond = select i1 %5, i1 true, i1 %6
  br i1 %or.cond, label %7, label %10

7:                                                ; preds = %2
  %8 = load ptr, ptr @bio_err, align 8, !tbaa !19
  %9 = tail call i32 (ptr, ptr, ...) @BIO_printf(ptr noundef %8, ptr noundef nonnull @.str.436) #14
  br label %16

10:                                               ; preds = %2
  %11 = srem i32 %1, %4
  %.not = icmp eq i32 %11, 0
  br i1 %.not, label %16, label %12

12:                                               ; preds = %10
  %13 = load ptr, ptr @bio_err, align 8, !tbaa !19
  %14 = tail call ptr @EVP_CIPHER_get0_name(ptr noundef nonnull %3) #14
  %15 = tail call i32 (ptr, ptr, ...) @BIO_printf(ptr noundef %13, ptr noundef nonnull @.str.437, ptr noundef %14) #14
  br label %16

16:                                               ; preds = %10, %12, %7
  %.0 = phi i32 [ 0, %7 ], [ 0, %12 ], [ 1, %10 ]
  ret i32 %.0
}